target datalayout = "e-m:e-p270:32:32-p271:32:32-p272:64:64-i64:64-i128:128-f80:128-n8:16:32:64-S128"
target triple = "x86_64-pc-linux-gnu"

; Function Attrs: nounwind uwtable
define float @Java_com_sun_media_sound_PortMixer_nControlGetFloatValue(ptr noundef %0, ptr noundef %1, i64 noundef %2) #0 {
  %4 = alloca ptr, align 8
  %5 = alloca ptr, align 8
  %6 = alloca i64, align 8
  %7 = alloca float, align 4
  store ptr %0, ptr %4, align 8
  store ptr %1, ptr %5, align 8
  store i64 %2, ptr %6, align 8
  store float 0.000000e+00, ptr %7, align 4
  %8 = load i64, ptr %6, align 8
  %9 = icmp ne i64 %8, 0
  br i1 %9, label %10, label %14

10:                                               ; preds = %3
  %11 = load i64, ptr %6, align 8
  %12 = inttoptr i64 %11 to ptr
  %13 = call float @PORT_GetFloatValue(ptr noundef %12)
  store float %13, ptr %7, align 4
  br label %14

14:                                               ; preds = %10, %3
  %15 = load float, ptr %7, align 4
  ret float %15
}