; Function Attrs: nounwind uwtable
define float @Java_com_sun_media_sound_PortMixer_nControlGetFloatValue(ptr nocapture noundef readnone %0, ptr nocapture noundef readnone %1, i64 noundef %2) local_unnamed_addr #0 {
  %.not = icmp eq i64 %2, 0
  br i1 %.not, label %7, label %4

4:                                                ; preds = %3
  %5 = inttoptr i64 %2 to ptr
  %6 = tail call float @PORT_GetFloatValue(ptr noundef nonnull %5) #3
  br label %7

7:                                                ; preds = %4, %3
  %.0 = phi float [ %6, %4 ], [ 0.000000e+00, %3 ]
  ret float %.0
}